target datalayout = "e-m:e-p270:32:32-p271:32:32-p272:64:64-i64:64-i128:128-f80:128-n8:16:32:64-S128"
target triple = "x86_64-pc-linux-gnu"

%struct.nghttp2_buf = type { ptr, ptr, ptr, ptr, ptr }
%struct.nghttp2_bufs = type { ptr, ptr, ptr, i64, i64, i64, i64, i64 }
%struct.nghttp2_buf_chain = type { ptr, %struct.nghttp2_buf }

; Function Attrs: nounwind uwtable
define dso_local i32 @nghttp2_bufs_add(ptr noundef %0, ptr noundef %1, i64 noundef %2) #0 {
  %4 = alloca i32, align 4
  %5 = alloca ptr, align 8
  %6 = alloca ptr, align 8
  %7 = alloca i64, align 8
  %8 = alloca i32, align 4
  %9 = alloca i64, align 8
  %10 = alloca ptr, align 8
  %11 = alloca ptr, align 8
  %12 = alloca i32, align 4
  store ptr %0, ptr %5, align 8, !tbaa !4
  store ptr %1, ptr %6, align 8, !tbaa !4
  store i64 %2, ptr %7, align 8, !tbaa !15
  call void @llvm.lifetime.start.p0(i64 4, ptr %8) #3
  call void @llvm.lifetime.start.p0(i64 8, ptr %9) #3
  call void @llvm.lifetime.start.p0(i64 8, ptr %10) #3
  call void @llvm.lifetime.start.p0(i64 8, ptr %11) #3
  %13 = load ptr, ptr %6, align 8, !tbaa !4
  store ptr %13, ptr %11, align 8, !tbaa !17
  br label %14

14:                                               ; preds = %57, %56, %3
  %15 = load i64, ptr %7, align 8, !tbaa !15
  %16 = icmp ne i64 %15, 0
  br i1 %16, label %17, label %72

17:                                               ; preds = %14
  %18 = load ptr, ptr %5, align 8, !tbaa !4
  %19 = getelementptr inbounds nuw %struct.nghttp2_bufs, ptr %18, i32 0, i32 1
  %20 = load ptr, ptr %19, align 8, !tbaa !26
  %21 = getelementptr inbounds nuw %struct.nghttp2_buf_chain, ptr %20, i32 0, i32 1
  store ptr %21, ptr %10, align 8, !tbaa !4
  %22 = load ptr, ptr %10, align 8, !tbaa !4
  %23 = getelementptr inbounds nuw %struct.nghttp2_buf, ptr %22, i32 0, i32 1
  %24 = load ptr, ptr %23, align 8, !tbaa !11
  %25 = load ptr, ptr %10, align 8, !tbaa !4
  %26 = getelementptr inbounds nuw %struct.nghttp2_buf, ptr %25, i32 0, i32 3
  %27 = load ptr, ptr %26, align 8, !tbaa !13
  %28 = ptrtoint ptr %24 to i64
  %29 = ptrtoint ptr %27 to i64
  %30 = sub i64 %28, %29
  %31 = load i64, ptr %7, align 8, !tbaa !15
  %32 = icmp ult i64 %30, %31
  br i1 %32, label %33, label %43

33:                                               ; preds = %17
  %34 = load ptr, ptr %10, align 8, !tbaa !4
  %35 = getelementptr inbounds nuw %struct.nghttp2_buf, ptr %34, i32 0, i32 1
  %36 = load ptr, ptr %35, align 8, !tbaa !11
  %37 = load ptr, ptr %10, align 8, !tbaa !4
  %38 = getelementptr inbounds nuw %struct.nghttp2_buf, ptr %37, i32 0, i32 3
  %39 = load ptr, ptr %38, align 8, !tbaa !13
  %40 = ptrtoint ptr %36 to i64
  %41 = ptrtoint ptr %39 to i64
  %42 = sub i64 %40, %41
  br label %45

43:                                               ; preds = %17
  %44 = load i64, ptr %7, align 8, !tbaa !15
  br label %45

45:                                               ; preds = %43, %33
  %46 = phi i64 [ %42, %33 ], [ %44, %43 ]
  store i64 %46, ptr %9, align 8, !tbaa !15
  %47 = load i64, ptr %9, align 8, !tbaa !15
  %48 = icmp eq i64 %47, 0
  br i1 %48, label %49, label %57

49:                                               ; preds = %45
  %50 = load ptr, ptr %5, align 8, !tbaa !4
  %51 = call i32 @bufs_alloc_chain(ptr noundef %50)
  store i32 %51, ptr %8, align 4, !tbaa !18
  %52 = load i32, ptr %8, align 4, !tbaa !18
  %53 = icmp ne i32 %52, 0
  br i1 %53, label %54, label %56

54:                                               ; preds = %49
  %55 = load i32, ptr %8, align 4, !tbaa !18
  store i32 %55, ptr %4, align 4
  store i32 1, ptr %12, align 4
  br label %73

56:                                               ; preds = %49
  br label %14, !llvm.loop !45

57:                                               ; preds = %45
  %58 = load ptr, ptr %10, align 8, !tbaa !4
  %59 = getelementptr inbounds nuw %struct.nghttp2_buf, ptr %58, i32 0, i32 3
  %60 = load ptr, ptr %59, align 8, !tbaa !13
  %61 = load ptr, ptr %11, align 8, !tbaa !17
  %62 = load i64, ptr %9, align 8, !tbaa !15
  %63 = call ptr @nghttp2_cpymem(ptr noundef %60, ptr noundef %61, i64 noundef %62)
  %64 = load ptr, ptr %10, align 8, !tbaa !4
  %65 = getelementptr inbounds nuw %struct.nghttp2_buf, ptr %64, i32 0, i32 3
  store ptr %63, ptr %65, align 8, !tbaa !13
  %66 = load i64, ptr %9, align 8, !tbaa !15
  %67 = load ptr, ptr %11, align 8, !tbaa !17
  %68 = getelementptr inbounds nuw i8, ptr %67, i64 %66
  store ptr %68, ptr %11, align 8, !tbaa !17
  %69 = load i64, ptr %9, align 8, !tbaa !15
  %70 = load i64, ptr %7, align 8, !tbaa !15
  %71 = sub i64 %70, %69
  store i64 %71, ptr %7, align 8, !tbaa !15
  br label %14, !llvm.loop !45

72:                                               ; preds = %14
  store i32 0, ptr %4, align 4
  store i32 1, ptr %12, align 4
  br label %73

73:                                               ; preds = %72, %54
  call void @llvm.lifetime.end.p0(i64 8, ptr %11) #3
  call void @llvm.lifetime.end.p0(i64 8, ptr %10) #3
  call void @llvm.lifetime.end.p0(i64 8, ptr %9) #3
  call void @llvm.lifetime.end.p0(i64 4, ptr %8) #3
  %74 = load i32, ptr %4, align 4
  ret i32 %74
}