; Function Attrs: nounwind uwtable
define dso_local range(i32 -901, 1) i32 @nghttp2_bufs_add(ptr noundef captures(none) %0, ptr noundef %1, i64 noundef %2) local_unnamed_addr #1 {
  %4 = getelementptr inbounds nuw i8, ptr %0, i64 8
  %.not52 = icmp eq i64 %2, 0
  br i1 %.not52, label %.split, label %.outer.split.preheader

.outer.split.preheader:                           ; preds = %3, %.outer
  %.0.ph54 = phi ptr [ %18, %.outer ], [ %1, %3 ]
  %.022.ph53 = phi i64 [ %19, %.outer ], [ %2, %3 ]
  br label %.outer.split

.outer.split:                                     ; preds = %.outer.split.preheader, %11
  %5 = load ptr, ptr %4, align 8, !tbaa !20
  %6 = getelementptr inbounds nuw i8, ptr %5, i64 16
  %7 = load ptr, ptr %6, align 8, !tbaa !13
  %8 = getelementptr inbounds nuw i8, ptr %5, i64 32
  %9 = load ptr, ptr %8, align 8, !tbaa !11
  %10 = icmp eq ptr %7, %9
  br i1 %10, label %11, label %.outer

11:                                               ; preds = %.outer.split
  %12 = tail call fastcc i32 @bufs_alloc_chain(ptr noundef nonnull %0)
  %.not26 = icmp eq i32 %12, 0
  br i1 %.not26, label %.outer.split, label %.split, !llvm.loop !38

.outer:                                           ; preds = %.outer.split
  %13 = getelementptr inbounds nuw i8, ptr %5, i64 32
  %14 = ptrtoint ptr %9 to i64
  %15 = ptrtoint ptr %7 to i64
  %16 = sub i64 %15, %14
  %..022 = tail call i64 @llvm.umin.i64(i64 %16, i64 %.022.ph53)
  %17 = tail call ptr @nghttp2_cpymem(ptr noundef %9, ptr noundef %.0.ph54, i64 noundef %..022) #10
  store ptr %17, ptr %13, align 8, !tbaa !11
  %18 = getelementptr inbounds nuw i8, ptr %.0.ph54, i64 %..022
  %19 = sub i64 %.022.ph53, %..022
  %.not = icmp eq i64 %19, 0
  br i1 %.not, label %.split, label %.outer.split.preheader, !llvm.loop !38

.split:                                           ; preds = %.outer, %11, %3
  %.021.split = phi i32 [ 0, %3 ], [ %12, %11 ], [ 0, %.outer ]
  ret i32 %.021.split
}